; Function Attrs: nounwind uwtable
define ptr @l_Array_forIn_x27Unsafe_loop___at_Lean_Elab_Command_elabAttr___spec__4___boxed(ptr noundef %0, ptr noundef %1, ptr noundef %2, ptr noundef %3, ptr noundef %4, ptr noundef %5, ptr noundef %6, ptr noundef %7, ptr noundef %8, ptr noundef %9, ptr noundef %10, ptr noundef %11, ptr noundef %12, ptr noundef %13) local_unnamed_addr #0 {
  %15 = getelementptr i8, ptr %4, i64 8
  %.val49 = load i64, ptr %15, align 8, !tbaa !12
  %16 = ptrtoint ptr %4 to i64
  %17 = and i64 %16, 1
  %.not = icmp eq i64 %17, 0
  br i1 %.not, label %18, label %lean_dec.exit32

18:                                               ; preds = %14
  %19 = load i32, ptr %4, align 4, !tbaa !4
  %20 = icmp sgt i32 %19, 1
  br i1 %20, label %21, label %23, !prof !11

21:                                               ; preds = %18
  %22 = add nsw i32 %19, -1
  store i32 %22, ptr %4, align 4, !tbaa !4
  br label %lean_dec.exit32

23:                                               ; preds = %18
  %.not.i = icmp eq i32 %19, 0
  br i1 %.not.i, label %lean_dec.exit32, label %24

24:                                               ; preds = %23
  tail call void @lean_dec_ref_cold(ptr noundef nonnull %4) #6
  br label %lean_dec.exit32

lean_dec.exit32:                                  ; preds = %24, %23, %21, %14
  %25 = getelementptr i8, ptr %5, i64 8
  %.val = load i64, ptr %25, align 8, !tbaa !12
  %26 = ptrtoint ptr %5 to i64
  %27 = and i64 %26, 1
  %.not50 = icmp eq i64 %27, 0
  br i1 %.not50, label %28, label %lean_dec.exit31

28:                                               ; preds = %lean_dec.exit32
  %29 = load i32, ptr %5, align 4, !tbaa !4
  %30 = icmp sgt i32 %29, 1
  br i1 %30, label %31, label %33, !prof !11

31:                                               ; preds = %28
  %32 = add nsw i32 %29, -1
  store i32 %32, ptr %5, align 4, !tbaa !4
  br label %lean_dec.exit31

33:                                               ; preds = %28
  %.not.i33 = icmp eq i32 %29, 0
  br i1 %.not.i33, label %lean_dec.exit31, label %34

34:                                               ; preds = %33
  tail call void @lean_dec_ref_cold(ptr noundef nonnull %5) #6
  br label %lean_dec.exit31

lean_dec.exit31:                                  ; preds = %34, %33, %31, %lean_dec.exit32
  %35 = tail call ptr @l_Array_forIn_x27Unsafe_loop___at_Lean_Elab_Command_elabAttr___spec__4(ptr poison, ptr noundef %1, ptr poison, ptr noundef %3, i64 noundef %.val49, i64 noundef %.val, ptr noundef %6, ptr poison, ptr poison, ptr poison, ptr poison, ptr noundef %11, ptr noundef %12, ptr noundef %13)
  %36 = ptrtoint ptr %10 to i64
  %37 = and i64 %36, 1
  %.not51 = icmp eq i64 %37, 0
  br i1 %.not51, label %38, label %lean_dec.exit30

38:                                               ; preds = %lean_dec.exit31
  %39 = load i32, ptr %10, align 4, !tbaa !4
  %40 = icmp sgt i32 %39, 1
  br i1 %40, label %41, label %43, !prof !11

41:                                               ; preds = %38
  %42 = add nsw i32 %39, -1
  store i32 %42, ptr %10, align 4, !tbaa !4
  br label %lean_dec.exit30

43:                                               ; preds = %38
  %.not.i35 = icmp eq i32 %39, 0
  br i1 %.not.i35, label %lean_dec.exit30, label %44

44:                                               ; preds = %43
  tail call void @lean_dec_ref_cold(ptr noundef nonnull %10) #6
  br label %lean_dec.exit30

lean_dec.exit30:                                  ; preds = %44, %43, %41, %lean_dec.exit31
  %45 = ptrtoint ptr %9 to i64
  %46 = and i64 %45, 1
  %.not52 = icmp eq i64 %46, 0
  br i1 %.not52, label %47, label %lean_dec.exit29

47:                                               ; preds = %lean_dec.exit30
  %48 = load i32, ptr %9, align 4, !tbaa !4
  %49 = icmp sgt i32 %48, 1
  br i1 %49, label %50, label %52, !prof !11

50:                                               ; preds = %47
  %51 = add nsw i32 %48, -1
  store i32 %51, ptr %9, align 4, !tbaa !4
  br label %lean_dec.exit29

52:                                               ; preds = %47
  %.not.i37 = icmp eq i32 %48, 0
  br i1 %.not.i37, label %lean_dec.exit29, label %53

53:                                               ; preds = %52
  tail call void @lean_dec_ref_cold(ptr noundef nonnull %9) #6
  br label %lean_dec.exit29

lean_dec.exit29:                                  ; preds = %53, %52, %50, %lean_dec.exit30
  %54 = ptrtoint ptr %8 to i64
  %55 = and i64 %54, 1
  %.not53 = icmp eq i64 %55, 0
  br i1 %.not53, label %56, label %lean_dec.exit28

56:                                               ; preds = %lean_dec.exit29
  %57 = load i32, ptr %8, align 4, !tbaa !4
  %58 = icmp sgt i32 %57, 1
  br i1 %58, label %59, label %61, !prof !11

59:                                               ; preds = %56
  %60 = add nsw i32 %57, -1
  store i32 %60, ptr %8, align 4, !tbaa !4
  br label %lean_dec.exit28

61:                                               ; preds = %56
  %.not.i39 = icmp eq i32 %57, 0
  br i1 %.not.i39, label %lean_dec.exit28, label %62

62:                                               ; preds = %61
  tail call void @lean_dec_ref_cold(ptr noundef nonnull %8) #6
  br label %lean_dec.exit28

lean_dec.exit28:                                  ; preds = %62, %61, %59, %lean_dec.exit29
  %63 = ptrtoint ptr %7 to i64
  %64 = and i64 %63, 1
  %.not54 = icmp eq i64 %64, 0
  br i1 %.not54, label %65, label %lean_dec.exit27

65:                                               ; preds = %lean_dec.exit28
  %66 = load i32, ptr %7, align 4, !tbaa !4
  %67 = icmp sgt i32 %66, 1
  br i1 %67, label %68, label %70, !prof !11

68:                                               ; preds = %65
  %69 = add nsw i32 %66, -1
  store i32 %69, ptr %7, align 4, !tbaa !4
  br label %lean_dec.exit27

70:                                               ; preds = %65
  %.not.i41 = icmp eq i32 %66, 0
  br i1 %.not.i41, label %lean_dec.exit27, label %71

71:                                               ; preds = %70
  tail call void @lean_dec_ref_cold(ptr noundef nonnull %7) #6
  br label %lean_dec.exit27

lean_dec.exit27:                                  ; preds = %71, %70, %68, %lean_dec.exit28
  %72 = ptrtoint ptr %3 to i64
  %73 = and i64 %72, 1
  %.not55 = icmp eq i64 %73, 0
  br i1 %.not55, label %74, label %lean_dec.exit26

74:                                               ; preds = %lean_dec.exit27
  %75 = load i32, ptr %3, align 4, !tbaa !4
  %76 = icmp sgt i32 %75, 1
  br i1 %76, label %77, label %79, !prof !11

77:                                               ; preds = %74
  %78 = add nsw i32 %75, -1
  store i32 %78, ptr %3, align 4, !tbaa !4
  br label %lean_dec.exit26

79:                                               ; preds = %74
  %.not.i43 = icmp eq i32 %75, 0
  br i1 %.not.i43, label %lean_dec.exit26, label %80

80:                                               ; preds = %79
  tail call void @lean_dec_ref_cold(ptr noundef nonnull %3) #6
  br label %lean_dec.exit26

lean_dec.exit26:                                  ; preds = %80, %79, %77, %lean_dec.exit27
  %81 = ptrtoint ptr %2 to i64
  %82 = and i64 %81, 1
  %.not56 = icmp eq i64 %82, 0
  br i1 %.not56, label %83, label %lean_dec.exit25

83:                                               ; preds = %lean_dec.exit26
  %84 = load i32, ptr %2, align 4, !tbaa !4
  %85 = icmp sgt i32 %84, 1
  br i1 %85, label %86, label %88, !prof !11

86:                                               ; preds = %83
  %87 = add nsw i32 %84, -1
  store i32 %87, ptr %2, align 4, !tbaa !4
  br label %lean_dec.exit25

88:                                               ; preds = %83
  %.not.i45 = icmp eq i32 %84, 0
  br i1 %.not.i45, label %lean_dec.exit25, label %89

89:                                               ; preds = %88
  tail call void @lean_dec_ref_cold(ptr noundef nonnull %2) #6
  br label %lean_dec.exit25

lean_dec.exit25:                                  ; preds = %89, %88, %86, %lean_dec.exit26
  %90 = ptrtoint ptr %0 to i64
  %91 = and i64 %90, 1
  %.not57 = icmp eq i64 %91, 0
  br i1 %.not57, label %92, label %lean_dec.exit

92:                                               ; preds = %lean_dec.exit25
  %93 = load i32, ptr %0, align 4, !tbaa !4
  %94 = icmp sgt i32 %93, 1
  br i1 %94, label %95, label %97, !prof !11

95:                                               ; preds = %92
  %96 = add nsw i32 %93, -1
  store i32 %96, ptr %0, align 4, !tbaa !4
  br label %lean_dec.exit

97:                                               ; preds = %92
  %.not.i47 = icmp eq i32 %93, 0
  br i1 %.not.i47, label %lean_dec.exit, label %98

98:                                               ; preds = %97
  tail call void @lean_dec_ref_cold(ptr noundef nonnull %0) #6
  br label %lean_dec.exit

lean_dec.exit:                                    ; preds = %98, %97, %95, %lean_dec.exit25
  ret ptr %35
}